; Function Attrs: mustprogress uwtable
define noundef i64 @_ZNK17grpc_event_engine12experimental14BasicWorkQueue4SizeEv(ptr noundef nonnull align 8 dereferenceable(104) %0) unnamed_addr #3 align 2 personality ptr @__gxx_personality_v0 {
  %2 = getelementptr inbounds nuw i8, ptr %0, i64 8
  tail call void @_ZN4absl12lts_202407225Mutex4LockEv(ptr noundef nonnull align 8 dereferenceable(8) %2)
  %3 = getelementptr inbounds nuw i8, ptr %0, i64 64
  %4 = getelementptr inbounds nuw i8, ptr %0, i64 32
  %5 = getelementptr inbounds nuw i8, ptr %0, i64 88
  %6 = load ptr, ptr %5, align 8, !tbaa !25
  %7 = getelementptr inbounds nuw i8, ptr %0, i64 56
  %8 = load ptr, ptr %7, align 8, !tbaa !25
  %9 = load ptr, ptr %3, align 8, !tbaa !24
  %10 = getelementptr inbounds nuw i8, ptr %0, i64 72
  %11 = load ptr, ptr %10, align 8, !tbaa !26
  %12 = getelementptr inbounds nuw i8, ptr %0, i64 48
  %13 = load ptr, ptr %12, align 8, !tbaa !27
  %14 = load ptr, ptr %4, align 8, !tbaa !24
  invoke void @_ZN4absl12lts_202407225Mutex6UnlockEv(ptr noundef nonnull align 8 dereferenceable(8) %2)
          to label %_ZN4absl12lts_202407229MutexLockD2Ev.exit unwind label %15

15:                                               ; preds = %1
  %16 = landingpad { ptr, i32 }
          catch ptr null
  %17 = extractvalue { ptr, i32 } %16, 0
  tail call void @__clang_call_terminate(ptr %17) #16
  unreachable

_ZN4absl12lts_202407229MutexLockD2Ev.exit:        ; preds = %1
  %18 = ptrtoint ptr %6 to i64
  %19 = ptrtoint ptr %8 to i64
  %20 = sub i64 %18, %19
  %21 = ashr exact i64 %20, 3
  %22 = icmp ne ptr %6, null
  %.neg.i.i = sext i1 %22 to i64
  %23 = add nsw i64 %21, %.neg.i.i
  %24 = shl nsw i64 %23, 6
  %25 = ptrtoint ptr %9 to i64
  %26 = ptrtoint ptr %11 to i64
  %27 = sub i64 %25, %26
  %28 = ashr exact i64 %27, 3
  %29 = add nsw i64 %24, %28
  %30 = ptrtoint ptr %13 to i64
  %31 = ptrtoint ptr %14 to i64
  %32 = sub i64 %30, %31
  %33 = ashr exact i64 %32, 3
  %34 = add nsw i64 %29, %33
  ret i64 %34
}